target datalayout = "e-m:e-p270:32:32-p271:32:32-p272:64:64-i64:64-i128:128-f80:128-n8:16:32:64-S128"
target triple = "x86_64-pc-linux-gnu"

%"class.smt2::scanner" = type { ptr, i8, i32, i8, i8, i32, i32, %class.symbol, %class.rational, i32, [256 x i8], [1024 x i8], i32, i32, %class.svector, ptr, i8, %class.svector, %class.svector }
%class.symbol = type { ptr }
%class.rational = type { %class.mpq }
%class.mpq = type { %class.mpz, %class.mpz }
%class.mpz = type { i32, i8, ptr }
%class.svector = type { %class.vector }
%class.vector = type { ptr }

; Function Attrs: mustprogress nounwind uwtable
define linkonce_odr hidden noundef zeroext i1 @_ZNK6vectorIcLb0EjE5emptyEv(ptr noundef nonnull align 8 dereferenceable(8) %0) #5 comdat align 2 {
  %2 = alloca ptr, align 8
  store ptr %0, ptr %2, align 8, !tbaa !34
  %3 = load ptr, ptr %2, align 8
  %4 = getelementptr inbounds nuw %class.vector, ptr %3, i32 0, i32 0
  %5 = load ptr, ptr %4, align 8, !tbaa !37
  %6 = icmp eq ptr %5, null
  br i1 %6, label %13, label %7

7:                                                ; preds = %1
  %8 = getelementptr inbounds nuw %class.vector, ptr %3, i32 0, i32 0
  %9 = load ptr, ptr %8, align 8, !tbaa !37
  %10 = getelementptr inbounds i32, ptr %9, i64 -1
  %11 = load i32, ptr %10, align 4, !tbaa !38
  %12 = icmp eq i32 %11, 0
  br label %13

13:                                               ; preds = %7, %1
  %14 = phi i1 [ true, %1 ], [ %12, %7 ]
  ret i1 %14
}

; Function Attrs: mustprogress nounwind uwtable
define linkonce_odr hidden noundef ptr @_ZN6vectorIcLb0EjE5beginEv(ptr noundef nonnull align 8 dereferenceable(8) %0) #5 comdat align 2 {
  %2 = alloca ptr, align 8
  store ptr %0, ptr %2, align 8, !tbaa !34
  %3 = load ptr, ptr %2, align 8
  %4 = getelementptr inbounds nuw %class.vector, ptr %3, i32 0, i32 0
  %5 = load ptr, ptr %4, align 8, !tbaa !37
  ret ptr %5
}

; Function Attrs: mustprogress uwtable
define linkonce_odr hidden noundef nonnull align 8 dereferenceable(8) ptr @_ZN6vectorIcLb0EjE9push_backEOc(ptr noundef nonnull align 8 dereferenceable(8) %0, ptr noundef nonnull align 1 dereferenceable(1) %1) #4 comdat align 2 {
  %3 = alloca ptr, align 8
  %4 = alloca ptr, align 8
  store ptr %0, ptr %3, align 8, !tbaa !34
  store ptr %1, ptr %4, align 8, !tbaa !36
  %5 = load ptr, ptr %3, align 8
  %6 = getelementptr inbounds nuw %class.vector, ptr %5, i32 0, i32 0
  %7 = load ptr, ptr %6, align 8, !tbaa !37
  %8 = icmp eq ptr %7, null
  br i1 %8, label %19, label %9

9:                                                ; preds = %2
  %10 = getelementptr inbounds nuw %class.vector, ptr %5, i32 0, i32 0
  %11 = load ptr, ptr %10, align 8, !tbaa !37
  %12 = getelementptr inbounds i32, ptr %11, i64 -1
  %13 = load i32, ptr %12, align 4, !tbaa !38
  %14 = getelementptr inbounds nuw %class.vector, ptr %5, i32 0, i32 0
  %15 = load ptr, ptr %14, align 8, !tbaa !37
  %16 = getelementptr inbounds i32, ptr %15, i64 -2
  %17 = load i32, ptr %16, align 4, !tbaa !38
  %18 = icmp eq i32 %13, %17
  br i1 %18, label %19, label %20

19:                                               ; preds = %9, %2
  call void @_ZN6vectorIcLb0EjE13expand_vectorEv(ptr noundef nonnull align 8 dereferenceable(8) %5)
  br label %20

20:                                               ; preds = %19, %9
  %21 = getelementptr inbounds nuw %class.vector, ptr %5, i32 0, i32 0
  %22 = load ptr, ptr %21, align 8, !tbaa !37
  %23 = getelementptr inbounds nuw %class.vector, ptr %5, i32 0, i32 0
  %24 = load ptr, ptr %23, align 8, !tbaa !37
  %25 = getelementptr inbounds i32, ptr %24, i64 -1
  %26 = load i32, ptr %25, align 4, !tbaa !38
  %27 = zext i32 %26 to i64
  %28 = getelementptr inbounds nuw i8, ptr %22, i64 %27
  %29 = load ptr, ptr %4, align 8, !tbaa !36
  %30 = load i8, ptr %29, align 1, !tbaa !32
  store i8 %30, ptr %28, align 1, !tbaa !32
  %31 = getelementptr inbounds nuw %class.vector, ptr %5, i32 0, i32 0
  %32 = load ptr, ptr %31, align 8, !tbaa !37
  %33 = getelementptr inbounds i32, ptr %32, i64 -1
  %34 = load i32, ptr %33, align 4, !tbaa !38
  %35 = add i32 %34, 1
  store i32 %35, ptr %33, align 4, !tbaa !38
  ret ptr %5
}

; Function Attrs: mustprogress uwtable
define linkonce_odr hidden noundef nonnull align 8 dereferenceable(8) ptr @_ZN6vectorIcLb0EjE9push_backERKc(ptr noundef nonnull align 8 dereferenceable(8) %0, ptr noundef nonnull align 1 dereferenceable(1) %1) #4 comdat align 2 {
  %3 = alloca ptr, align 8
  %4 = alloca ptr, align 8
  store ptr %0, ptr %3, align 8, !tbaa !34
  store ptr %1, ptr %4, align 8, !tbaa !36
  %5 = load ptr, ptr %3, align 8
  %6 = getelementptr inbounds nuw %class.vector, ptr %5, i32 0, i32 0
  %7 = load ptr, ptr %6, align 8, !tbaa !37
  %8 = icmp eq ptr %7, null
  br i1 %8, label %19, label %9

9:                                                ; preds = %2
  %10 = getelementptr inbounds nuw %class.vector, ptr %5, i32 0, i32 0
  %11 = load ptr, ptr %10, align 8, !tbaa !37
  %12 = getelementptr inbounds i32, ptr %11, i64 -1
  %13 = load i32, ptr %12, align 4, !tbaa !38
  %14 = getelementptr inbounds nuw %class.vector, ptr %5, i32 0, i32 0
  %15 = load ptr, ptr %14, align 8, !tbaa !37
  %16 = getelementptr inbounds i32, ptr %15, i64 -2
  %17 = load i32, ptr %16, align 4, !tbaa !38
  %18 = icmp eq i32 %13, %17
  br i1 %18, label %19, label %20

19:                                               ; preds = %9, %2
  call void @_ZN6vectorIcLb0EjE13expand_vectorEv(ptr noundef nonnull align 8 dereferenceable(8) %5)
  br label %20

20:                                               ; preds = %19, %9
  %21 = getelementptr inbounds nuw %class.vector, ptr %5, i32 0, i32 0
  %22 = load ptr, ptr %21, align 8, !tbaa !37
  %23 = getelementptr inbounds nuw %class.vector, ptr %5, i32 0, i32 0
  %24 = load ptr, ptr %23, align 8, !tbaa !37
  %25 = getelementptr inbounds i32, ptr %24, i64 -1
  %26 = load i32, ptr %25, align 4, !tbaa !38
  %27 = zext i32 %26 to i64
  %28 = getelementptr inbounds nuw i8, ptr %22, i64 %27
  %29 = load ptr, ptr %4, align 8, !tbaa !36
  %30 = load i8, ptr %29, align 1, !tbaa !32
  store i8 %30, ptr %28, align 1, !tbaa !32
  %31 = getelementptr inbounds nuw %class.vector, ptr %5, i32 0, i32 0
  %32 = load ptr, ptr %31, align 8, !tbaa !37
  %33 = getelementptr inbounds i32, ptr %32, i64 -1
  %34 = load i32, ptr %33, align 4, !tbaa !38
  %35 = add i32 %34, 1
  store i32 %35, ptr %33, align 4, !tbaa !38
  ret ptr %5
}

; Function Attrs: mustprogress nounwind uwtable
define linkonce_odr hidden noundef signext i8 @_ZNK4smt27scanner4currEv(ptr noundef nonnull align 8 dereferenceable(1408) %0) #5 comdat align 2 {
  %2 = alloca ptr, align 8
  store ptr %0, ptr %2, align 8, !tbaa !3
  %3 = load ptr, ptr %2, align 8
  %4 = getelementptr inbounds nuw %"class.smt2::scanner", ptr %3, i32 0, i32 3
  %5 = load i8, ptr %4, align 8, !tbaa !27
  ret i8 %5
}

; Function Attrs: mustprogress uwtable
define hidden noundef i32 @_ZN4smt27scanner16read_symbol_coreEv(ptr noundef nonnull align 8 dereferenceable(1408) %0) #4 align 2 {
  %2 = alloca i32, align 4
  %3 = alloca ptr, align 8
  %4 = alloca i8, align 1
  %5 = alloca i8, align 1
  %6 = alloca i8, align 1
  %7 = alloca i32, align 4
  %8 = alloca i8, align 1
  store ptr %0, ptr %3, align 8, !tbaa !3
  %9 = load ptr, ptr %3, align 8
  br label %10

10:                                               ; preds = %46, %1
  %11 = getelementptr inbounds nuw %"class.smt2::scanner", ptr %9, i32 0, i32 4
  %12 = load i8, ptr %11, align 1, !tbaa !24, !range !22, !noundef !23
  %13 = trunc i8 %12 to i1
  %14 = xor i1 %13, true
  br i1 %14, label %15, label %47

15:                                               ; preds = %10
  call void @llvm.lifetime.start.p0(i64 1, ptr %4) #3
  %16 = call noundef signext i8 @_ZNK4smt27scanner4currEv(ptr noundef nonnull align 8 dereferenceable(1408) %9)
  store i8 %16, ptr %4, align 1, !tbaa !32
  call void @llvm.lifetime.start.p0(i64 1, ptr %5) #3
  %17 = getelementptr inbounds nuw %"class.smt2::scanner", ptr %9, i32 0, i32 10
  %18 = load i8, ptr %4, align 1, !tbaa !32
  %19 = zext i8 %18 to i64
  %20 = getelementptr inbounds nuw [256 x i8], ptr %17, i64 0, i64 %19
  %21 = load i8, ptr %20, align 1, !tbaa !32
  store i8 %21, ptr %5, align 1, !tbaa !32
  %22 = load i8, ptr %5, align 1, !tbaa !32
  %23 = sext i8 %22 to i32
  %24 = icmp eq i32 %23, 97
  br i1 %24, label %33, label %25

25:                                               ; preds = %15
  %26 = load i8, ptr %5, align 1, !tbaa !32
  %27 = sext i8 %26 to i32
  %28 = icmp eq i32 %27, 48
  br i1 %28, label %33, label %29

29:                                               ; preds = %25
  %30 = load i8, ptr %5, align 1, !tbaa !32
  %31 = sext i8 %30 to i32
  %32 = icmp eq i32 %31, 45
  br i1 %32, label %33, label %36

33:                                               ; preds = %29, %25, %15
  %34 = getelementptr inbounds nuw %"class.smt2::scanner", ptr %9, i32 0, i32 14
  %35 = call noundef nonnull align 8 dereferenceable(8) ptr @_ZN6vectorIcLb0EjE9push_backERKc(ptr noundef nonnull align 8 dereferenceable(8) %34, ptr noundef nonnull align 1 dereferenceable(1) %4)
  call void @_ZN4smt27scanner4nextEv(ptr noundef nonnull align 8 dereferenceable(1408) %9)
  br label %43

36:                                               ; preds = %29
  %37 = getelementptr inbounds nuw %"class.smt2::scanner", ptr %9, i32 0, i32 14
  call void @llvm.lifetime.start.p0(i64 1, ptr %6) #3
  store i8 0, ptr %6, align 1, !tbaa !32
  %38 = call noundef nonnull align 8 dereferenceable(8) ptr @_ZN6vectorIcLb0EjE9push_backEOc(ptr noundef nonnull align 8 dereferenceable(8) %37, ptr noundef nonnull align 1 dereferenceable(1) %6)
  call void @llvm.lifetime.end.p0(i64 1, ptr %6) #3
  %39 = getelementptr inbounds nuw %"class.smt2::scanner", ptr %9, i32 0, i32 14
  %40 = call noundef ptr @_ZN6vectorIcLb0EjE5beginEv(ptr noundef nonnull align 8 dereferenceable(8) %39)
  %41 = getelementptr inbounds nuw %"class.smt2::scanner", ptr %9, i32 0, i32 7
  %42 = call noundef nonnull align 8 dereferenceable(8) ptr @_ZN6symbolaSEPKc(ptr noundef nonnull align 8 dereferenceable(8) %41, ptr noundef %40)
  store i32 4, ptr %2, align 4
  store i32 1, ptr %7, align 4
  br label %44

43:                                               ; preds = %33
  store i32 0, ptr %7, align 4
  br label %44

44:                                               ; preds = %43, %36
  call void @llvm.lifetime.end.p0(i64 1, ptr %5) #3
  call void @llvm.lifetime.end.p0(i64 1, ptr %4) #3
  %45 = load i32, ptr %7, align 4
  switch i32 %45, label %60 [
    i32 0, label %46
    i32 1, label %58
  ]

46:                                               ; preds = %44
  br label %10, !llvm.loop !65

47:                                               ; preds = %10
  %48 = getelementptr inbounds nuw %"class.smt2::scanner", ptr %9, i32 0, i32 14
  %49 = call noundef zeroext i1 @_ZNK6vectorIcLb0EjE5emptyEv(ptr noundef nonnull align 8 dereferenceable(8) %48)
  br i1 %49, label %57, label %50

50:                                               ; preds = %47
  %51 = getelementptr inbounds nuw %"class.smt2::scanner", ptr %9, i32 0, i32 14
  call void @llvm.lifetime.start.p0(i64 1, ptr %8) #3
  store i8 0, ptr %8, align 1, !tbaa !32
  %52 = call noundef nonnull align 8 dereferenceable(8) ptr @_ZN6vectorIcLb0EjE9push_backEOc(ptr noundef nonnull align 8 dereferenceable(8) %51, ptr noundef nonnull align 1 dereferenceable(1) %8)
  call void @llvm.lifetime.end.p0(i64 1, ptr %8) #3
  %53 = getelementptr inbounds nuw %"class.smt2::scanner", ptr %9, i32 0, i32 14
  %54 = call noundef ptr @_ZN6vectorIcLb0EjE5beginEv(ptr noundef nonnull align 8 dereferenceable(8) %53)
  %55 = getelementptr inbounds nuw %"class.smt2::scanner", ptr %9, i32 0, i32 7
  %56 = call noundef nonnull align 8 dereferenceable(8) ptr @_ZN6symbolaSEPKc(ptr noundef nonnull align 8 dereferenceable(8) %55, ptr noundef %54)
  store i32 4, ptr %2, align 4
  br label %58

57:                                               ; preds = %47
  store i32 9, ptr %2, align 4
  br label %58

58:                                               ; preds = %57, %50, %44
  %59 = load i32, ptr %2, align 4
  ret i32 %59

60:                                               ; preds = %44
  unreachable
}