; Function Attrs: mustprogress uwtable
define hidden noundef range(i32 4, 10) i32 @_ZN4smt27scanner16read_symbol_coreEv(ptr noundef nonnull align 8 dereferenceable(1408) %0) local_unnamed_addr #3 align 2 {
  %2 = getelementptr inbounds nuw i8, ptr %0, i64 17
  %3 = load i8, ptr %2, align 1, !tbaa !25, !range !20, !noundef !21
  %4 = trunc nuw i8 %3 to i1
  br i1 %4, label %._crit_edge, label %.lr.ph

.lr.ph:                                           ; preds = %1
  %5 = getelementptr inbounds nuw i8, ptr %0, i64 16
  %6 = getelementptr inbounds nuw i8, ptr %0, i64 76
  %7 = getelementptr inbounds nuw i8, ptr %0, i64 1368
  %8 = getelementptr inbounds nuw i8, ptr %0, i64 32
  br label %9

9:                                                ; preds = %.lr.ph, %.backedge
  %10 = load i8, ptr %5, align 8, !tbaa !28
  %11 = zext i8 %10 to i64
  %12 = getelementptr inbounds nuw [256 x i8], ptr %6, i64 0, i64 %11
  %13 = load i8, ptr %12, align 1, !tbaa !24
  switch i8 %13, label %32 [
    i8 97, label %14
    i8 48, label %14
    i8 45, label %14
  ]

14:                                               ; preds = %9, %9, %9
  %15 = load ptr, ptr %7, align 8, !tbaa !22
  %16 = icmp eq ptr %15, null
  br i1 %16, label %23, label %17

17:                                               ; preds = %14
  %18 = getelementptr inbounds i8, ptr %15, i64 -4
  %19 = load i32, ptr %18, align 4, !tbaa !23
  %20 = getelementptr inbounds i8, ptr %15, i64 -8
  %21 = load i32, ptr %20, align 4, !tbaa !23
  %22 = icmp eq i32 %19, %21
  br i1 %22, label %23, label %_ZN6vectorIcLb0EjE9push_backERKc.exit

23:                                               ; preds = %17, %14
  tail call void @_ZN6vectorIcLb0EjE13expand_vectorEv(ptr noundef nonnull align 8 dereferenceable(8) %7)
  %.pre.i = load ptr, ptr %7, align 8, !tbaa !22
  %.phi.trans.insert.i = getelementptr inbounds i8, ptr %.pre.i, i64 -4
  %.pre2.i = load i32, ptr %.phi.trans.insert.i, align 4, !tbaa !23
  br label %_ZN6vectorIcLb0EjE9push_backERKc.exit

_ZN6vectorIcLb0EjE9push_backERKc.exit:            ; preds = %17, %23
  %24 = phi i32 [ %.pre2.i, %23 ], [ %19, %17 ]
  %25 = phi ptr [ %.pre.i, %23 ], [ %15, %17 ]
  %26 = zext i32 %24 to i64
  %27 = getelementptr inbounds nuw i8, ptr %25, i64 %26
  store i8 %10, ptr %27, align 1, !tbaa !24
  %28 = load ptr, ptr %7, align 8, !tbaa !22
  %29 = getelementptr inbounds i8, ptr %28, i64 -4
  %30 = load i32, ptr %29, align 4, !tbaa !23
  %31 = add i32 %30, 1
  store i32 %31, ptr %29, align 4, !tbaa !23
  tail call void @_ZN4smt27scanner4nextEv(ptr noundef nonnull align 8 dereferenceable(1408) %0)
  br label %51

32:                                               ; preds = %9
  %33 = load ptr, ptr %7, align 8, !tbaa !22
  %34 = icmp eq ptr %33, null
  br i1 %34, label %41, label %35

35:                                               ; preds = %32
  %36 = getelementptr inbounds i8, ptr %33, i64 -4
  %37 = load i32, ptr %36, align 4, !tbaa !23
  %38 = getelementptr inbounds i8, ptr %33, i64 -8
  %39 = load i32, ptr %38, align 4, !tbaa !23
  %40 = icmp eq i32 %37, %39
  br i1 %40, label %41, label %_ZN6vectorIcLb0EjE9push_backEOc.exit

41:                                               ; preds = %35, %32
  tail call void @_ZN6vectorIcLb0EjE13expand_vectorEv(ptr noundef nonnull align 8 dereferenceable(8) %7)
  %.pre.i14 = load ptr, ptr %7, align 8, !tbaa !22
  %.phi.trans.insert.i15 = getelementptr inbounds i8, ptr %.pre.i14, i64 -4
  %.pre2.i16 = load i32, ptr %.phi.trans.insert.i15, align 4, !tbaa !23
  br label %_ZN6vectorIcLb0EjE9push_backEOc.exit

_ZN6vectorIcLb0EjE9push_backEOc.exit:             ; preds = %35, %41
  %42 = phi i32 [ %.pre2.i16, %41 ], [ %37, %35 ]
  %43 = phi ptr [ %.pre.i14, %41 ], [ %33, %35 ]
  %44 = zext i32 %42 to i64
  %45 = getelementptr inbounds nuw i8, ptr %43, i64 %44
  store i8 0, ptr %45, align 1, !tbaa !24
  %46 = load ptr, ptr %7, align 8, !tbaa !22
  %47 = getelementptr inbounds i8, ptr %46, i64 -4
  %48 = load i32, ptr %47, align 4, !tbaa !23
  %49 = add i32 %48, 1
  store i32 %49, ptr %47, align 4, !tbaa !23
  %50 = tail call noundef nonnull align 8 dereferenceable(8) ptr @_ZN6symbolaSEPKc(ptr noundef nonnull align 8 dereferenceable(8) %8, ptr noundef %46)
  br label %51

51:                                               ; preds = %_ZN6vectorIcLb0EjE9push_backERKc.exit, %_ZN6vectorIcLb0EjE9push_backEOc.exit
  switch i8 %13, label %_ZNK6vectorIcLb0EjE5emptyEv.exit.thread [
    i8 97, label %.backedge
    i8 48, label %.backedge
    i8 45, label %.backedge
  ]

.backedge:                                        ; preds = %51, %51, %51
  %52 = load i8, ptr %2, align 1, !tbaa !25, !range !20, !noundef !21
  %53 = trunc nuw i8 %52 to i1
  br i1 %53, label %._crit_edge, label %9

._crit_edge:                                      ; preds = %.backedge, %1
  %54 = getelementptr inbounds nuw i8, ptr %0, i64 1368
  %55 = load ptr, ptr %54, align 8, !tbaa !22
  %56 = icmp eq ptr %55, null
  br i1 %56, label %_ZNK6vectorIcLb0EjE5emptyEv.exit.thread, label %_ZNK6vectorIcLb0EjE5emptyEv.exit

_ZNK6vectorIcLb0EjE5emptyEv.exit:                 ; preds = %._crit_edge
  %57 = getelementptr inbounds i8, ptr %55, i64 -4
  %58 = load i32, ptr %57, align 4, !tbaa !23
  %59 = icmp eq i32 %58, 0
  br i1 %59, label %_ZNK6vectorIcLb0EjE5emptyEv.exit.thread, label %60

60:                                               ; preds = %_ZNK6vectorIcLb0EjE5emptyEv.exit
  %61 = getelementptr inbounds i8, ptr %55, i64 -8
  %62 = load i32, ptr %61, align 4, !tbaa !23
  %63 = icmp eq i32 %58, %62
  br i1 %63, label %64, label %_ZN6vectorIcLb0EjE9push_backEOc.exit20

64:                                               ; preds = %60
  tail call void @_ZN6vectorIcLb0EjE13expand_vectorEv(ptr noundef nonnull align 8 dereferenceable(8) %54)
  %.pre.i17 = load ptr, ptr %54, align 8, !tbaa !22
  %.phi.trans.insert.i18 = getelementptr inbounds i8, ptr %.pre.i17, i64 -4
  %.pre2.i19 = load i32, ptr %.phi.trans.insert.i18, align 4, !tbaa !23
  br label %_ZN6vectorIcLb0EjE9push_backEOc.exit20

_ZN6vectorIcLb0EjE9push_backEOc.exit20:           ; preds = %60, %64
  %65 = phi i32 [ %.pre2.i19, %64 ], [ %58, %60 ]
  %66 = phi ptr [ %.pre.i17, %64 ], [ %55, %60 ]
  %67 = zext i32 %65 to i64
  %68 = getelementptr inbounds nuw i8, ptr %66, i64 %67
  store i8 0, ptr %68, align 1, !tbaa !24
  %69 = load ptr, ptr %54, align 8, !tbaa !22
  %70 = getelementptr inbounds i8, ptr %69, i64 -4
  %71 = load i32, ptr %70, align 4, !tbaa !23
  %72 = add i32 %71, 1
  store i32 %72, ptr %70, align 4, !tbaa !23
  %73 = getelementptr inbounds nuw i8, ptr %0, i64 32
  %74 = tail call noundef nonnull align 8 dereferenceable(8) ptr @_ZN6symbolaSEPKc(ptr noundef nonnull align 8 dereferenceable(8) %73, ptr noundef %69)
  br label %_ZNK6vectorIcLb0EjE5emptyEv.exit.thread

_ZNK6vectorIcLb0EjE5emptyEv.exit.thread:          ; preds = %51, %._crit_edge, %_ZNK6vectorIcLb0EjE5emptyEv.exit, %_ZN6vectorIcLb0EjE9push_backEOc.exit20
  %.2 = phi i32 [ 4, %_ZN6vectorIcLb0EjE9push_backEOc.exit20 ], [ 9, %_ZNK6vectorIcLb0EjE5emptyEv.exit ], [ 9, %._crit_edge ], [ 4, %51 ]
  ret i32 %.2
}